target datalayout = "e-m:e-p270:32:32-p271:32:32-p272:64:64-i64:64-i128:128-f80:128-n8:16:32:64-S128"
target triple = "x86_64-pc-linux-gnu"

%class.JVMCINMethodData = type { i8, i32, i32, ptr }

; Function Attrs: mustprogress nounwind uwtable
define hidden noundef ptr @_ZN16JVMCINMethodData18get_nmethod_mirrorEP7nmethodb(ptr noundef nonnull align 8 dereferenceable(24) %0, ptr noundef %1, i1 noundef zeroext %2) #1 align 2 {
  %4 = alloca ptr, align 8
  %5 = alloca ptr, align 8
  %6 = alloca ptr, align 8
  %7 = alloca i8, align 1
  store ptr %0, ptr %5, align 8
  store ptr %1, ptr %6, align 8
  %8 = zext i1 %2 to i8
  store i8 %8, ptr %7, align 1
  %9 = load ptr, ptr %5, align 8
  %10 = getelementptr inbounds %class.JVMCINMethodData, ptr %9, i32 0, i32 1
  %11 = load i32, ptr %10, align 4
  %12 = icmp eq i32 %11, -1
  br i1 %12, label %13, label %14

13:                                               ; preds = %3
  store ptr null, ptr %4, align 8
  br label %27

14:                                               ; preds = %3
  %15 = load i8, ptr %7, align 1
  %16 = trunc i8 %15 to i1
  br i1 %16, label %17, label %22

17:                                               ; preds = %14
  %18 = load ptr, ptr %6, align 8
  %19 = getelementptr inbounds %class.JVMCINMethodData, ptr %9, i32 0, i32 1
  %20 = load i32, ptr %19, align 4
  %21 = call noundef ptr @_ZNK7nmethod14oop_at_phantomEi(ptr noundef nonnull align 8 dereferenceable(214) %18, i32 noundef %20)
  store ptr %21, ptr %4, align 8
  br label %27

22:                                               ; preds = %14
  %23 = load ptr, ptr %6, align 8
  %24 = getelementptr inbounds %class.JVMCINMethodData, ptr %9, i32 0, i32 1
  %25 = load i32, ptr %24, align 4
  %26 = call noundef ptr @_ZNK7nmethod6oop_atEi(ptr noundef nonnull align 8 dereferenceable(214) %23, i32 noundef %25)
  store ptr %26, ptr %4, align 8
  br label %27

27:                                               ; preds = %22, %17, %13
  %28 = load ptr, ptr %4, align 8
  ret ptr %28
}