; Function Attrs: mustprogress nounwind uwtable
define hidden noundef ptr @_ZN16JVMCINMethodData18get_nmethod_mirrorEP7nmethodb(ptr nocapture noundef nonnull readonly align 8 dereferenceable(24) %0, ptr noundef %1, i1 noundef zeroext %2) local_unnamed_addr #0 align 2 {
  %4 = getelementptr inbounds i8, ptr %0, i64 4
  %5 = load i32, ptr %4, align 4
  %6 = icmp eq i32 %5, -1
  br i1 %6, label %12, label %7

7:                                                ; preds = %3
  br i1 %2, label %8, label %10

8:                                                ; preds = %7
  %9 = tail call noundef ptr @_ZNK7nmethod14oop_at_phantomEi(ptr noundef nonnull align 8 dereferenceable(214) %1, i32 noundef %5) #15
  br label %12

10:                                               ; preds = %7
  %11 = tail call noundef ptr @_ZNK7nmethod6oop_atEi(ptr noundef nonnull align 8 dereferenceable(214) %1, i32 noundef %5) #15
  br label %12

12:                                               ; preds = %3, %10, %8
  %.0 = phi ptr [ %9, %8 ], [ %11, %10 ], [ null, %3 ]
  ret ptr %.0
}